; Function Attrs: nounwind uwtable
define void @ossl_sa_doall_arg(ptr noundef readonly captures(address_is_null) %0, ptr noundef readonly captures(address_is_null) %1, ptr noundef %2) local_unnamed_addr #0 {
  %4 = alloca [16 x i32], align 16
  %5 = alloca [16 x ptr], align 16
  %.not = icmp eq ptr %0, null
  br i1 %.not, label %64, label %6

6:                                                ; preds = %3
  call void @llvm.lifetime.start.p0(i64 64, ptr nonnull %4) #5
  call void @llvm.lifetime.start.p0(i64 128, ptr nonnull %5) #5
  store i32 0, ptr %4, align 16, !tbaa !3
  %7 = getelementptr inbounds nuw i8, ptr %0, i64 24
  %8 = load ptr, ptr %7, align 8, !tbaa !7
  store ptr %8, ptr %5, align 16, !tbaa !11
  %.not40.i = icmp eq ptr %1, null
  br i1 %.not40.i, label %.split.us.split.us.i, label %.split.split.us.i

.split.us.split.us.i:                             ; preds = %6, %32
  %.03141.us.us.i = phi i32 [ %.132.us.us.i, %32 ], [ 0, %6 ]
  %9 = zext nneg i32 %.03141.us.us.i to i64
  %10 = getelementptr inbounds nuw [16 x i32], ptr %4, i64 0, i64 %9
  %11 = load i32, ptr %10, align 4, !tbaa !3
  %12 = getelementptr inbounds nuw [16 x ptr], ptr %5, i64 0, i64 %9
  %13 = load ptr, ptr %12, align 8, !tbaa !11
  %14 = icmp sgt i32 %11, 15
  br i1 %14, label %30, label %15

15:                                               ; preds = %.split.us.split.us.i
  %16 = add nsw i32 %11, 1
  store i32 %16, ptr %10, align 4, !tbaa !3
  %.not.us.us.i = icmp eq ptr %13, null
  br i1 %.not.us.us.i, label %32, label %17

17:                                               ; preds = %15
  %18 = sext i32 %11 to i64
  %19 = getelementptr inbounds ptr, ptr %13, i64 %18
  %20 = load ptr, ptr %19, align 8, !tbaa !11
  %.not39.us.us.i = icmp eq ptr %20, null
  br i1 %.not39.us.us.i, label %32, label %21

21:                                               ; preds = %17
  %22 = load i32, ptr %0, align 8, !tbaa !12
  %23 = add nsw i32 %22, -1
  %24 = icmp slt i32 %.03141.us.us.i, %23
  br i1 %24, label %25, label %32

25:                                               ; preds = %21
  %26 = add nuw nsw i32 %.03141.us.us.i, 1
  %27 = zext nneg i32 %26 to i64
  %28 = getelementptr inbounds nuw [16 x i32], ptr %4, i64 0, i64 %27
  store i32 0, ptr %28, align 4, !tbaa !3
  %29 = getelementptr inbounds nuw [16 x ptr], ptr %5, i64 0, i64 %27
  store ptr %20, ptr %29, align 8, !tbaa !11
  br label %32

30:                                               ; preds = %.split.us.split.us.i
  %31 = add nsw i32 %.03141.us.us.i, -1
  br label %32

32:                                               ; preds = %30, %25, %21, %17, %15
  %.132.us.us.i = phi i32 [ %31, %30 ], [ %26, %25 ], [ %.03141.us.us.i, %17 ], [ %.03141.us.us.i, %15 ], [ %.03141.us.us.i, %21 ]
  %33 = icmp sgt i32 %.132.us.us.i, -1
  br i1 %33, label %.split.us.split.us.i, label %sa_doall.exit, !llvm.loop !13

.split.split.us.i:                                ; preds = %6, %62
  %.042.us45.i = phi i64 [ %.1.us51.i, %62 ], [ 0, %6 ]
  %.03141.us46.i = phi i32 [ %.132.us50.i, %62 ], [ 0, %6 ]
  %34 = zext nneg i32 %.03141.us46.i to i64
  %35 = getelementptr inbounds nuw [16 x i32], ptr %4, i64 0, i64 %34
  %36 = load i32, ptr %35, align 4, !tbaa !3
  %37 = getelementptr inbounds nuw [16 x ptr], ptr %5, i64 0, i64 %34
  %38 = load ptr, ptr %37, align 8, !tbaa !11
  %39 = icmp sgt i32 %36, 15
  br i1 %39, label %59, label %40

40:                                               ; preds = %.split.split.us.i
  %41 = add nsw i32 %36, 1
  store i32 %41, ptr %35, align 4, !tbaa !3
  %.not.us47.i = icmp eq ptr %38, null
  br i1 %.not.us47.i, label %62, label %42

42:                                               ; preds = %40
  %43 = sext i32 %36 to i64
  %44 = getelementptr inbounds ptr, ptr %38, i64 %43
  %45 = load ptr, ptr %44, align 8, !tbaa !11
  %.not39.us48.i = icmp eq ptr %45, null
  br i1 %.not39.us48.i, label %62, label %46

46:                                               ; preds = %42
  %47 = and i64 %.042.us45.i, -16
  %48 = or i64 %47, %43
  %49 = load i32, ptr %0, align 8, !tbaa !12
  %50 = add nsw i32 %49, -1
  %51 = icmp slt i32 %.03141.us46.i, %50
  br i1 %51, label %53, label %52

52:                                               ; preds = %46
  tail call void %1(i64 noundef %48, ptr noundef nonnull %45, ptr noundef %2) #5
  br label %62

53:                                               ; preds = %46
  %54 = add nuw nsw i32 %.03141.us46.i, 1
  %55 = zext nneg i32 %54 to i64
  %56 = getelementptr inbounds nuw [16 x i32], ptr %4, i64 0, i64 %55
  store i32 0, ptr %56, align 4, !tbaa !3
  %57 = getelementptr inbounds nuw [16 x ptr], ptr %5, i64 0, i64 %55
  store ptr %45, ptr %57, align 8, !tbaa !11
  %58 = shl i64 %48, 4
  br label %62

59:                                               ; preds = %.split.split.us.i
  %60 = add nsw i32 %.03141.us46.i, -1
  %61 = lshr i64 %.042.us45.i, 4
  br label %62

62:                                               ; preds = %59, %53, %52, %42, %40
  %.132.us50.i = phi i32 [ %60, %59 ], [ %54, %53 ], [ %.03141.us46.i, %52 ], [ %.03141.us46.i, %42 ], [ %.03141.us46.i, %40 ]
  %.1.us51.i = phi i64 [ %61, %59 ], [ %58, %53 ], [ %48, %52 ], [ %.042.us45.i, %42 ], [ %.042.us45.i, %40 ]
  %63 = icmp sgt i32 %.132.us50.i, -1
  br i1 %63, label %.split.split.us.i, label %sa_doall.exit, !llvm.loop !13

sa_doall.exit:                                    ; preds = %62, %32
  call void @llvm.lifetime.end.p0(i64 128, ptr nonnull %5) #5
  call void @llvm.lifetime.end.p0(i64 64, ptr nonnull %4) #5
  br label %64

64:                                               ; preds = %sa_doall.exit, %3
  ret void
}